target datalayout = "e-m:e-p270:32:32-p271:32:32-p272:64:64-i64:64-i128:128-f80:128-n8:16:32:64-S128"
target triple = "x86_64-pc-linux-gnu"

%"class.std::unique_ptr" = type { %"struct.std::__uniq_ptr_data" }
%"struct.std::__uniq_ptr_data" = type { %"class.std::__uniq_ptr_impl" }
%"class.std::__uniq_ptr_impl" = type { %"class.std::tuple" }
%"class.std::tuple" = type { %"struct.std::_Tuple_impl" }
%"struct.std::_Tuple_impl" = type { %"struct.std::_Head_base.23" }
%"struct.std::_Head_base.23" = type { ptr }
%"class.clang::CodeGenOptionsBase" = type { i64, i64, i64, i64, i64, i64, i64, i64, i64, i64, i64, i64, i64, i64, i64, i64 }
%class.anon.373 = type { ptr, ptr, ptr }

; Function Attrs: mustprogress nounwind uwtable
define linkonce_odr hidden noundef nonnull align 8 dereferenceable(8) ptr @_ZNSt10_Head_baseILm0EPN4llvm17raw_pwrite_streamELb0EE7_M_headERKS3_(ptr noundef nonnull align 8 dereferenceable(8) %0) #1 comdat align 2 {
  %2 = alloca ptr, align 8
  store ptr %0, ptr %2, align 8
  %3 = load ptr, ptr %2, align 8
  %4 = getelementptr inbounds nuw %"struct.std::_Head_base.23", ptr %3, i32 0, i32 0
  ret ptr %4
}

; Function Attrs: mustprogress nounwind uwtable
define linkonce_odr hidden noundef nonnull align 8 dereferenceable(8) ptr @_ZNSt11_Tuple_implILm0EJPN4llvm17raw_pwrite_streamESt14default_deleteIS1_EEE7_M_headERKS5_(ptr noundef nonnull align 8 dereferenceable(8) %0) #1 comdat align 2 {
  %2 = alloca ptr, align 8
  store ptr %0, ptr %2, align 8
  %3 = load ptr, ptr %2, align 8
  %4 = call noundef nonnull align 8 dereferenceable(8) ptr @_ZNSt10_Head_baseILm0EPN4llvm17raw_pwrite_streamELb0EE7_M_headERKS3_(ptr noundef nonnull align 8 dereferenceable(8) %3) #2
  ret ptr %4
}

; Function Attrs: mustprogress nounwind uwtable
define linkonce_odr noundef nonnull align 8 dereferenceable(8) ptr @_ZSt12__get_helperILm0EPN4llvm17raw_pwrite_streamEJSt14default_deleteIS1_EEERKT0_RKSt11_Tuple_implIXT_EJS5_DpT1_EE(ptr noundef nonnull align 8 dereferenceable(8) %0) #1 comdat {
  %2 = alloca ptr, align 8
  store ptr %0, ptr %2, align 8
  %3 = load ptr, ptr %2, align 8
  %4 = call noundef nonnull align 8 dereferenceable(8) ptr @_ZNSt11_Tuple_implILm0EJPN4llvm17raw_pwrite_streamESt14default_deleteIS1_EEE7_M_headERKS5_(ptr noundef nonnull align 8 dereferenceable(8) %3) #2
  ret ptr %4
}

; Function Attrs: mustprogress nounwind uwtable
define linkonce_odr noundef nonnull align 8 dereferenceable(8) ptr @_ZSt3getILm0EJPN4llvm17raw_pwrite_streamESt14default_deleteIS1_EEERKNSt13tuple_elementIXT_ESt5tupleIJDpT0_EEE4typeERKS9_(ptr noundef nonnull align 8 dereferenceable(8) %0) #1 comdat {
  %2 = alloca ptr, align 8
  store ptr %0, ptr %2, align 8
  %3 = load ptr, ptr %2, align 8
  %4 = call noundef nonnull align 8 dereferenceable(8) ptr @_ZSt12__get_helperILm0EPN4llvm17raw_pwrite_streamEJSt14default_deleteIS1_EEERKT0_RKSt11_Tuple_implIXT_EJS5_DpT1_EE(ptr noundef nonnull align 8 dereferenceable(8) %3) #2
  ret ptr %4
}

; Function Attrs: mustprogress nounwind uwtable
define linkonce_odr hidden noundef ptr @_ZNKSt15__uniq_ptr_implIN4llvm17raw_pwrite_streamESt14default_deleteIS1_EE6_M_ptrEv(ptr noundef nonnull align 8 dereferenceable(8) %0) #1 comdat align 2 {
  %2 = alloca ptr, align 8
  store ptr %0, ptr %2, align 8
  %3 = load ptr, ptr %2, align 8
  %4 = getelementptr inbounds nuw %"class.std::__uniq_ptr_impl", ptr %3, i32 0, i32 0
  %5 = call noundef nonnull align 8 dereferenceable(8) ptr @_ZSt3getILm0EJPN4llvm17raw_pwrite_streamESt14default_deleteIS1_EEERKNSt13tuple_elementIXT_ESt5tupleIJDpT0_EEE4typeERKS9_(ptr noundef nonnull align 8 dereferenceable(8) %4) #2
  %6 = load ptr, ptr %5, align 8
  ret ptr %6
}

; Function Attrs: mustprogress nounwind uwtable
define linkonce_odr hidden noundef ptr @_ZNKSt10unique_ptrIN4llvm17raw_pwrite_streamESt14default_deleteIS1_EE3getEv(ptr noundef nonnull align 8 dereferenceable(8) %0) #1 comdat align 2 {
  %2 = alloca ptr, align 8
  store ptr %0, ptr %2, align 8
  %3 = load ptr, ptr %2, align 8
  %4 = getelementptr inbounds nuw %"class.std::unique_ptr", ptr %3, i32 0, i32 0
  %5 = call noundef ptr @_ZNKSt15__uniq_ptr_implIN4llvm17raw_pwrite_streamESt14default_deleteIS1_EE6_M_ptrEv(ptr noundef nonnull align 8 dereferenceable(8) %4) #2
  ret ptr %5
}

; Function Attrs: mustprogress nounwind uwtable
define linkonce_odr hidden noundef nonnull align 8 dereferenceable(48) ptr @_ZNKSt10unique_ptrIN4llvm17raw_pwrite_streamESt14default_deleteIS1_EEdeEv(ptr noundef nonnull align 8 dereferenceable(8) %0) #1 comdat align 2 {
  %2 = alloca ptr, align 8
  store ptr %0, ptr %2, align 8
  %3 = load ptr, ptr %2, align 8
  br label %4

4:                                                ; preds = %1
  br label %5

5:                                                ; preds = %4
  %6 = call noundef ptr @_ZNKSt10unique_ptrIN4llvm17raw_pwrite_streamESt14default_deleteIS1_EE3getEv(ptr noundef nonnull align 8 dereferenceable(8) %3) #2
  ret ptr %6
}

; Function Attrs: mustprogress nounwind uwtable
define internal noundef zeroext i1 @"_ZZL17runThinLTOBackendRN5clang17DiagnosticsEngineEPN4llvm18ModuleSummaryIndexEPNS2_6ModuleERKNS_19HeaderSearchOptionsERKNS_14CodeGenOptionsERKNS_13TargetOptionsERKNS_11LangOptionsESt10unique_ptrINS2_17raw_pwrite_streamESt14default_deleteISK_EENSt7__cxx1112basic_stringIcSt11char_traitsIcESaIcEEEST_NS_13BackendActionEENK3$_1clEmRKS5_"(ptr noundef nonnull align 8 dereferenceable(24) %0, i64 noundef %1, ptr noundef nonnull align 8 dereferenceable(857) %2) #1 align 2 {
  %4 = alloca ptr, align 8
  %5 = alloca i64, align 8
  %6 = alloca ptr, align 8
  store ptr %0, ptr %4, align 8
  store i64 %1, ptr %5, align 8
  store ptr %2, ptr %6, align 8
  %7 = load ptr, ptr %4, align 8
  %8 = getelementptr inbounds nuw %class.anon.373, ptr %7, i32 0, i32 0
  %9 = load ptr, ptr %8, align 8
  %10 = load ptr, ptr %9, align 8
  %11 = getelementptr inbounds nuw %class.anon.373, ptr %7, i32 0, i32 1
  %12 = load ptr, ptr %11, align 8
  %13 = call noundef nonnull align 8 dereferenceable(48) ptr @_ZNKSt10unique_ptrIN4llvm17raw_pwrite_streamESt14default_deleteIS1_EEdeEv(ptr noundef nonnull align 8 dereferenceable(8) %12) #2
  %14 = getelementptr inbounds nuw %class.anon.373, ptr %7, i32 0, i32 2
  %15 = load ptr, ptr %14, align 8
  %16 = getelementptr inbounds nuw %"class.clang::CodeGenOptionsBase", ptr %15, i32 0, i32 10
  %17 = load i64, ptr %16, align 8
  %18 = lshr i64 %17, 33
  %19 = and i64 %18, 1
  %20 = trunc i64 %19 to i32
  %21 = icmp ne i32 %20, 0
  call void @_ZNK4llvm6Module5printERNS_11raw_ostreamEPNS_24AssemblyAnnotationWriterEbb(ptr noundef nonnull align 8 dereferenceable(857) %10, ptr noundef nonnull align 8 dereferenceable(48) %13, ptr noundef null, i1 noundef zeroext %21, i1 noundef zeroext false)
  ret i1 false
}

; Function Attrs: mustprogress nounwind uwtable
define linkonce_odr hidden noundef ptr @_ZNKSt9_Any_data9_M_accessEv(ptr noundef nonnull align 8 dereferenceable(16) %0) #1 comdat align 2 {
  %2 = alloca ptr, align 8
  store ptr %0, ptr %2, align 8
  %3 = load ptr, ptr %2, align 8
  %4 = getelementptr inbounds [16 x i8], ptr %3, i64 0, i64 0
  ret ptr %4
}

; Function Attrs: mustprogress nounwind uwtable
define internal noundef zeroext i1 @"_ZSt13__invoke_implIbRZL17runThinLTOBackendRN5clang17DiagnosticsEngineEPN4llvm18ModuleSummaryIndexEPNS3_6ModuleERKNS0_19HeaderSearchOptionsERKNS0_14CodeGenOptionsERKNS0_13TargetOptionsERKNS0_11LangOptionsESt10unique_ptrINS3_17raw_pwrite_streamESt14default_deleteISL_EENSt7__cxx1112basic_stringIcSt11char_traitsIcESaIcEEESU_NS0_13BackendActionEE3$_1JjRKS6_EET_St14__invoke_otherOT0_DpOT1_"(ptr noundef nonnull align 8 dereferenceable(24) %0, ptr noundef nonnull align 4 dereferenceable(4) %1, ptr noundef nonnull align 8 dereferenceable(857) %2) #1 {
  %4 = alloca ptr, align 8
  %5 = alloca ptr, align 8
  %6 = alloca ptr, align 8
  store ptr %0, ptr %4, align 8
  store ptr %1, ptr %5, align 8
  store ptr %2, ptr %6, align 8
  %7 = load ptr, ptr %4, align 8
  %8 = load ptr, ptr %5, align 8
  %9 = load i32, ptr %8, align 4
  %10 = zext i32 %9 to i64
  %11 = load ptr, ptr %6, align 8
  %12 = call noundef zeroext i1 @"_ZZL17runThinLTOBackendRN5clang17DiagnosticsEngineEPN4llvm18ModuleSummaryIndexEPNS2_6ModuleERKNS_19HeaderSearchOptionsERKNS_14CodeGenOptionsERKNS_13TargetOptionsERKNS_11LangOptionsESt10unique_ptrINS2_17raw_pwrite_streamESt14default_deleteISK_EENSt7__cxx1112basic_stringIcSt11char_traitsIcESaIcEEEST_NS_13BackendActionEENK3$_1clEmRKS5_"(ptr noundef nonnull align 8 dereferenceable(24) %7, i64 noundef %10, ptr noundef nonnull align 8 dereferenceable(857) %11)
  ret i1 %12
}

; Function Attrs: mustprogress nounwind uwtable
define internal noundef nonnull align 8 dereferenceable(8) ptr @"_ZNKSt9_Any_data9_M_accessIPZL17runThinLTOBackendRN5clang17DiagnosticsEngineEPN4llvm18ModuleSummaryIndexEPNS4_6ModuleERKNS1_19HeaderSearchOptionsERKNS1_14CodeGenOptionsERKNS1_13TargetOptionsERKNS1_11LangOptionsESt10unique_ptrINS4_17raw_pwrite_streamESt14default_deleteISM_EENSt7__cxx1112basic_stringIcSt11char_traitsIcESaIcEEESV_NS1_13BackendActionEE3$_1EERKT_v"(ptr noundef nonnull align 8 dereferenceable(16) %0) #1 align 2 {
  %2 = alloca ptr, align 8
  store ptr %0, ptr %2, align 8
  %3 = load ptr, ptr %2, align 8
  %4 = call noundef ptr @_ZNKSt9_Any_data9_M_accessEv(ptr noundef nonnull align 8 dereferenceable(16) %3) #2
  ret ptr %4
}

; Function Attrs: mustprogress nounwind uwtable
define internal noundef zeroext i1 @"_ZSt10__invoke_rIbRZL17runThinLTOBackendRN5clang17DiagnosticsEngineEPN4llvm18ModuleSummaryIndexEPNS3_6ModuleERKNS0_19HeaderSearchOptionsERKNS0_14CodeGenOptionsERKNS0_13TargetOptionsERKNS0_11LangOptionsESt10unique_ptrINS3_17raw_pwrite_streamESt14default_deleteISL_EENSt7__cxx1112basic_stringIcSt11char_traitsIcESaIcEEESU_NS0_13BackendActionEE3$_1JjRKS6_EENSt9enable_ifIX16is_invocable_r_vIT_T0_DpT1_EES11_E4typeEOS12_DpOS13_"(ptr noundef nonnull align 8 dereferenceable(24) %0, ptr noundef nonnull align 4 dereferenceable(4) %1, ptr noundef nonnull align 8 dereferenceable(857) %2) #1 {
  %4 = alloca ptr, align 8
  %5 = alloca ptr, align 8
  %6 = alloca ptr, align 8
  store ptr %0, ptr %4, align 8
  store ptr %1, ptr %5, align 8
  store ptr %2, ptr %6, align 8
  %7 = load ptr, ptr %4, align 8
  %8 = load ptr, ptr %5, align 8
  %9 = load ptr, ptr %6, align 8
  %10 = call noundef zeroext i1 @"_ZSt13__invoke_implIbRZL17runThinLTOBackendRN5clang17DiagnosticsEngineEPN4llvm18ModuleSummaryIndexEPNS3_6ModuleERKNS0_19HeaderSearchOptionsERKNS0_14CodeGenOptionsERKNS0_13TargetOptionsERKNS0_11LangOptionsESt10unique_ptrINS3_17raw_pwrite_streamESt14default_deleteISL_EENSt7__cxx1112basic_stringIcSt11char_traitsIcESaIcEEESU_NS0_13BackendActionEE3$_1JjRKS6_EET_St14__invoke_otherOT0_DpOT1_"(ptr noundef nonnull align 8 dereferenceable(24) %7, ptr noundef nonnull align 4 dereferenceable(4) %8, ptr noundef nonnull align 8 dereferenceable(857) %9)
  ret i1 %10
}

; Function Attrs: mustprogress nounwind uwtable
define internal noundef ptr @"_ZNSt14_Function_base13_Base_managerIZL17runThinLTOBackendRN5clang17DiagnosticsEngineEPN4llvm18ModuleSummaryIndexEPNS4_6ModuleERKNS1_19HeaderSearchOptionsERKNS1_14CodeGenOptionsERKNS1_13TargetOptionsERKNS1_11LangOptionsESt10unique_ptrINS4_17raw_pwrite_streamESt14default_deleteISM_EENSt7__cxx1112basic_stringIcSt11char_traitsIcESaIcEEESV_NS1_13BackendActionEE3$_1E14_M_get_pointerERKSt9_Any_data"(ptr noundef nonnull align 8 dereferenceable(16) %0) #1 align 2 {
  %2 = alloca ptr, align 8
  store ptr %0, ptr %2, align 8
  %3 = load ptr, ptr %2, align 8
  %4 = call noundef nonnull align 8 dereferenceable(8) ptr @"_ZNKSt9_Any_data9_M_accessIPZL17runThinLTOBackendRN5clang17DiagnosticsEngineEPN4llvm18ModuleSummaryIndexEPNS4_6ModuleERKNS1_19HeaderSearchOptionsERKNS1_14CodeGenOptionsERKNS1_13TargetOptionsERKNS1_11LangOptionsESt10unique_ptrINS4_17raw_pwrite_streamESt14default_deleteISM_EENSt7__cxx1112basic_stringIcSt11char_traitsIcESaIcEEESV_NS1_13BackendActionEE3$_1EERKT_v"(ptr noundef nonnull align 8 dereferenceable(16) %3) #2
  %5 = load ptr, ptr %4, align 8
  ret ptr %5
}

; Function Attrs: mustprogress nounwind uwtable
define internal noundef zeroext i1 @"_ZNSt17_Function_handlerIFbjRKN4llvm6ModuleEEZL17runThinLTOBackendRN5clang17DiagnosticsEngineEPNS0_18ModuleSummaryIndexEPS1_RKNS5_19HeaderSearchOptionsERKNS5_14CodeGenOptionsERKNS5_13TargetOptionsERKNS5_11LangOptionsESt10unique_ptrINS0_17raw_pwrite_streamESt14default_deleteISO_EENSt7__cxx1112basic_stringIcSt11char_traitsIcESaIcEEESX_NS5_13BackendActionEE3$_1E9_M_invokeERKSt9_Any_dataOjS3_"(ptr noundef nonnull align 8 dereferenceable(16) %0, ptr noundef nonnull align 4 dereferenceable(4) %1, ptr noundef nonnull align 8 dereferenceable(857) %2) #1 align 2 {
  %4 = alloca ptr, align 8
  %5 = alloca ptr, align 8
  %6 = alloca ptr, align 8
  store ptr %0, ptr %4, align 8
  store ptr %1, ptr %5, align 8
  store ptr %2, ptr %6, align 8
  %7 = load ptr, ptr %4, align 8
  %8 = call noundef ptr @"_ZNSt14_Function_base13_Base_managerIZL17runThinLTOBackendRN5clang17DiagnosticsEngineEPN4llvm18ModuleSummaryIndexEPNS4_6ModuleERKNS1_19HeaderSearchOptionsERKNS1_14CodeGenOptionsERKNS1_13TargetOptionsERKNS1_11LangOptionsESt10unique_ptrINS4_17raw_pwrite_streamESt14default_deleteISM_EENSt7__cxx1112basic_stringIcSt11char_traitsIcESaIcEEESV_NS1_13BackendActionEE3$_1E14_M_get_pointerERKSt9_Any_data"(ptr noundef nonnull align 8 dereferenceable(16) %7) #2
  %9 = load ptr, ptr %5, align 8
  %10 = load ptr, ptr %6, align 8
  %11 = call noundef zeroext i1 @"_ZSt10__invoke_rIbRZL17runThinLTOBackendRN5clang17DiagnosticsEngineEPN4llvm18ModuleSummaryIndexEPNS3_6ModuleERKNS0_19HeaderSearchOptionsERKNS0_14CodeGenOptionsERKNS0_13TargetOptionsERKNS0_11LangOptionsESt10unique_ptrINS3_17raw_pwrite_streamESt14default_deleteISL_EENSt7__cxx1112basic_stringIcSt11char_traitsIcESaIcEEESU_NS0_13BackendActionEE3$_1JjRKS6_EENSt9enable_ifIX16is_invocable_r_vIT_T0_DpT1_EES11_E4typeEOS12_DpOS13_"(ptr noundef nonnull align 8 dereferenceable(24) %8, ptr noundef nonnull align 4 dereferenceable(4) %9, ptr noundef nonnull align 8 dereferenceable(857) %10)
  ret i1 %11
}