; Function Attrs: mustprogress nounwind uwtable
define internal noundef zeroext i1 @"_ZNSt17_Function_handlerIFbjRKN4llvm6ModuleEEZL17runThinLTOBackendRN5clang17DiagnosticsEngineEPNS0_18ModuleSummaryIndexEPS1_RKNS5_19HeaderSearchOptionsERKNS5_14CodeGenOptionsERKNS5_13TargetOptionsERKNS5_11LangOptionsESt10unique_ptrINS0_17raw_pwrite_streamESt14default_deleteISO_EENSt7__cxx1112basic_stringIcSt11char_traitsIcESaIcEEESX_NS5_13BackendActionEE3$_1E9_M_invokeERKSt9_Any_dataOjS3_"(ptr noundef nonnull readonly align 8 captures(none) dereferenceable(16) %0, ptr nonnull readonly align 4 captures(none) %1, ptr nonnull readnone align 8 captures(none) %2) #0 align 2 {
  %.val = load ptr, ptr %0, align 8
  %4 = load ptr, ptr %.val, align 8
  %5 = load ptr, ptr %4, align 8
  %6 = getelementptr inbounds nuw i8, ptr %.val, i64 8
  %7 = load ptr, ptr %6, align 8
  %8 = load ptr, ptr %7, align 8
  %9 = getelementptr inbounds nuw i8, ptr %.val, i64 16
  %10 = load ptr, ptr %9, align 8
  %11 = getelementptr inbounds nuw i8, ptr %10, i64 80
  %12 = load i64, ptr %11, align 8
  %13 = and i64 %12, 8589934592
  %14 = icmp ne i64 %13, 0
  tail call void @_ZNK4llvm6Module5printERNS_11raw_ostreamEPNS_24AssemblyAnnotationWriterEbb(ptr noundef nonnull align 8 dereferenceable(857) %5, ptr noundef nonnull align 8 dereferenceable(48) %8, ptr noundef null, i1 noundef zeroext %14, i1 noundef zeroext false) #22
  ret i1 false
}